; Function Attrs: nounwind sspstrong uwtable
define dso_local void @tcg_gen_sari_i64(ptr noundef %0, ptr noundef %1, i64 noundef %2) local_unnamed_addr #2 {
  %or.cond = icmp ult i64 %2, 64
  tail call void @llvm.assume(i1 %or.cond)
  %4 = icmp eq i64 %2, 0
  br i1 %4, label %5, label %17

5:                                                ; preds = %3
  %6 = icmp eq ptr %0, %1
  br i1 %6, label %tcg_gen_mov_i64.exit, label %7

7:                                                ; preds = %5
  %8 = tail call align 8 ptr @llvm.threadlocal.address.p0(ptr align 8 @tcg_ctx)
  %9 = load ptr, ptr %8, align 8
  %10 = ptrtoint ptr %0 to i64
  %11 = getelementptr inbounds nuw i8, ptr %9, i64 %10
  %12 = ptrtoint ptr %11 to i64
  %13 = ptrtoint ptr %1 to i64
  %14 = getelementptr inbounds nuw i8, ptr %9, i64 %13
  %15 = ptrtoint ptr %14 to i64
  %16 = tail call ptr @tcg_gen_op2(i32 noundef 63, i32 noundef 1, i64 noundef %12, i64 noundef %15)
  br label %tcg_gen_mov_i64.exit

17:                                               ; preds = %3
  %18 = tail call ptr @tcg_constant_i64(i64 noundef %2) #6
  %19 = tail call align 8 ptr @llvm.threadlocal.address.p0(ptr align 8 @tcg_ctx)
  %20 = load ptr, ptr %19, align 8
  %21 = ptrtoint ptr %0 to i64
  %22 = getelementptr inbounds nuw i8, ptr %20, i64 %21
  %23 = ptrtoint ptr %22 to i64
  %24 = ptrtoint ptr %1 to i64
  %25 = getelementptr inbounds nuw i8, ptr %20, i64 %24
  %26 = ptrtoint ptr %25 to i64
  %27 = ptrtoint ptr %18 to i64
  %28 = getelementptr inbounds nuw i8, ptr %20, i64 %27
  %29 = ptrtoint ptr %28 to i64
  %30 = tail call ptr @tcg_gen_op3(i32 noundef 92, i32 noundef 1, i64 noundef %23, i64 noundef %26, i64 noundef %29)
  br label %tcg_gen_mov_i64.exit

tcg_gen_mov_i64.exit:                             ; preds = %7, %5, %17
  ret void
}